; Function Attrs: nounwind sspstrong uwtable
define internal void @cpu_common_finalize(ptr noundef %0) #0 {
  %2 = load i8, ptr @tcg_allowed, align 1, !range !10, !noundef !11
  %3 = trunc nuw i8 %2 to i1
  br i1 %3, label %4, label %7

4:                                                ; preds = %1
  %5 = getelementptr inbounds nuw i8, ptr %0, i64 696
  %6 = load ptr, ptr %5, align 8
  tail call void @g_free(ptr noundef %6) #12
  br label %7

7:                                                ; preds = %4, %1
  tail call void @free_queued_cpu_work(ptr noundef %0) #12
  %8 = getelementptr inbounds nuw i8, ptr %0, i64 544
  %9 = load ptr, ptr %8, align 16
  %.not = icmp eq ptr %9, null
  br i1 %.not, label %12, label %10

10:                                               ; preds = %7
  %11 = tail call ptr @g_array_free(ptr noundef nonnull %9, i32 noundef 1) #12
  br label %12

12:                                               ; preds = %10, %7
  %13 = getelementptr inbounds nuw i8, ptr %0, i64 688
  tail call void @qemu_lockcnt_destroy(ptr noundef nonnull %13) #12
  %14 = getelementptr inbounds nuw i8, ptr %0, i64 440
  tail call void @qemu_mutex_destroy(ptr noundef nonnull %14) #12
  %15 = getelementptr inbounds nuw i8, ptr %0, i64 184
  %16 = load ptr, ptr %15, align 8
  tail call void @qemu_cond_destroy(ptr noundef %16) #12
  %17 = load ptr, ptr %15, align 8
  tail call void @g_free(ptr noundef %17) #12
  %18 = getelementptr inbounds nuw i8, ptr %0, i64 168
  %19 = load ptr, ptr %18, align 8
  tail call void @g_free(ptr noundef %19) #12
  ret void
}